文件：Sub.c        编译器版本 HGASM 0202 页次1


   1  0000              ; Generated by holtek-gcc v3.19, Fri Mar 18 18:46:54 2022
   2  0000              ; 
   3  0000              ; Configuration:
   4  0000              ;       with long instruction
   5  0000              ;       Multi-ROM, Multi-RAM
   6  0000              ;       bits_per_rom_unit:16
   7  0000              ;       with mp1
   8  0000              ;       with tbhp, address(0x9)
   9  0000              ;          Use tabrd-const
  10  0000              ;       
  11  0000              ; SFR address of long-instruction arch:
  12  0000              ;    mp0 = -1,1,0
  13  0000              ;    mp1 = 4,3,2
  14  0000              ;    mp2 = 14,13,12
  15  0000              ;    tbp = 9,7,8
  16  0000              ;    acc = 5
  17  0000              ;    pcl = 6
  18  0000              ;    status = 10
  19  0000              ;    bp = 11
  20  0000              ;    intc = 16
  21  0000              ;       
  22  0000              ;       
  23  0000              ; use 'tabrdc' instead of 'tabrd'
  24  0000              ;       
  25  0000              
  26  0000              #pragma translator "holtek-gcc 4.6.4" "3.19" "build 20130711"
  27  0000              ; Rebuild 718
  28  0000              
  29  0000              ir equ [2]
  30  0000              mp equ [3]
  31  0000              sbp equ [4]
  32  0000              acc equ [5]
  33  0000              bp equ [11]
  34  0000              tblp equ [7]
  35  0000              tbhp equ [9]
  36  0000              status equ [10]
  37  0000              c equ [10].0
  38  0000              ac equ [10].1
  39  0000              z equ [10].2
  40  0000              ov equ [10].3
  41  0000              cz equ [10].6
  42  0000              sc equ [10].7
  43  0000              intc equ [16]
  44  0000              mduwr0 equ [59h]
  45  0000              mduwr1 equ [5ah]
  46  0000              mduwr2 equ [5bh]
  47  0000              mduwr3 equ [5ch]
  48  0000              mduwr4 equ [5dh]
  49  0000              mduwr5 equ [5eh]
  50  0000              mduwrctrl equ [5fh]
  51  0000              
  52  0000              extern ra:byte
  53  0000              extern rb:byte
  54  0000              extern rc:byte
  55  0000              extern rd:byte
  56  0000              extern re:byte
  57  0000              extern rf:byte
  58  0000              extern rg:byte
  59  0000              extern rh:byte
文件：Sub.ASM      编译器版本 HGASM 0202 页次2

  60  0000              extern _Crom2Prom:near
  61  0000              extern _Crom2PromNext:near
  62  0000              
  63  0000              RAMBANK 0 @BITDATASEC, @BITDATASEC1
  64  0000              @HCCINIT	.section 'data'
  65  0000              @HCCINIT0	.section 'data'
  66  0000              @BITDATASEC	 .section 'data'
  67  0000              @BITDATASEC1	 .section 'data'
  68  0000              
  69  0000              #pragma debug scope 1 1
  70  0000              	extern __DELAY3:near
  71  0000              	extern __DELAYX3:near
  72  0000              	extern __DELAYX6:near
  73  0000              	extern __DELAYY5:near
  74  0000              	extern __DELAYY3:near
  75  0000              	extern _builtin_holtek_delay_2:byte
  76  0000              ___hircc equ [59]
  77  0000              ___wdtc equ [62]
  78  0000              ___mp0 equ [1]
  79  0000              ___iar0 equ [0]
  80  0000              ___mp1h equ [4]
  81  0000              ___mp1l equ [3]
  82  0000              ___iar1 equ [2]
  83  0000              public _SYS_Initial
  84  0000              #pragma debug scope 2 1

  10  0000              #line 10 "E:\HT66\2019合泰杯线上讲课资料\HT8\HT66F2390UART例程_V1.1\HT66F2390_UART_1602\Sub.c"
  10  0000              _SYS_Initial .section 'code'
  10  0000              _SYS_Initial proc
  12  0000              #line 12 "E:\HT66\2019合泰杯线上讲课资料\HT8\HT66F2390UART例程_V1.1\HT66F2390_UART_1602\Sub.c"
  12  0000  0F09        	mov a,9
  12  0001  00BB        	mov [59],a
  12  0002              _L3:
  13  0002              #line 13 "E:\HT66\2019合泰杯线上讲课资料\HT8\HT66F2390UART例程_V1.1\HT66F2390_UART_1602\Sub.c"
  13  0002  38BB        	snz [59].1
  13  0003  2800     R  	jmp _L3
  24  0004              #line 24 "E:\HT66\2019合泰杯线上讲课资料\HT8\HT66F2390UART例程_V1.1\HT66F2390_UART_1602\Sub.c"
  24  0004  0F56        	mov a,86
  24  0005  00BE        	mov [62],a
  26  0006              #line 26 "E:\HT66\2019合泰杯线上讲课资料\HT8\HT66F2390UART例程_V1.1\HT66F2390_UART_1602\Sub.c"
  26  0006  0F7F        	mov a,127
  26  0007  0081        	mov [1],a
  26  0008              _L4:
  26  0008  1601        	siza [1]
  26  0009  2800     R  	jmp _LI1
  26  000A  2800     R  	jmp _L9
  26  000B              _LI1:
  28  000B              #line 28 "E:\HT66\2019合泰杯线上讲课资料\HT8\HT66F2390UART例程_V1.1\HT66F2390_UART_1602\Sub.c"
  28  000B  1481        	inc [1]
  29  000C              #line 29 "E:\HT66\2019合泰杯线上讲课资料\HT8\HT66F2390UART例程_V1.1\HT66F2390_UART_1602\Sub.c"
  29  000C  1F00        	clr [0]
  29  000D  2800     R  	jmp _L4
  29  000E              _L9:
  33  000E              #line 33 "E:\HT66\2019合泰杯线上讲课资料\HT8\HT66F2390UART例程_V1.1\HT66F2390_UART_1602\Sub.c"
  33  000E  0F01        	mov a,1
  33  000F  0084        	mov [4],a
  34  0010              #line 34 "E:\HT66\2019合泰杯线上讲课资料\HT8\HT66F2390UART例程_V1.1\HT66F2390_UART_1602\Sub.c"
  34  0010  0F7F        	mov a,127
  34  0011  0083        	mov [3],a
  34  0012              _L6:
文件：Sub.c        编译器版本 HGASM 0202 页次3

  34  0012  1603        	siza [3]
  34  0013  2800     R  	jmp _LI2
  34  0014  2800     R  	jmp _L10
  34  0015              _LI2:
  36  0015              #line 36 "E:\HT66\2019合泰杯线上讲课资料\HT8\HT66F2390UART例程_V1.1\HT66F2390_UART_1602\Sub.c"
  36  0015  1483        	inc [3]
  37  0016              #line 37 "E:\HT66\2019合泰杯线上讲课资料\HT8\HT66F2390UART例程_V1.1\HT66F2390_UART_1602\Sub.c"
  37  0016  1F02        	clr [2]
  37  0017  2800     R  	jmp _L6
  37  0018              _L10:
  40  0018              #line 40 "E:\HT66\2019合泰杯线上讲课资料\HT8\HT66F2390UART例程_V1.1\HT66F2390_UART_1602\Sub.c"
  40  0018  1F04        	clr [4]
  40  0019  0003        	ret
  40  001A              _SYS_Initial endp
  40  001A              #line 40 "E:\HT66\2019合泰杯线上讲课资料\HT8\HT66F2390UART例程_V1.1\HT66F2390_UART_1602\Sub.c"
  40  001A              #pragma debug scope 1 1
  40  001A              public _Show_1st_Message_to_PC
  40  001A              #pragma debug scope 3 1
  49  001A              #line 49 "E:\HT66\2019合泰杯线上讲课资料\HT8\HT66F2390UART例程_V1.1\HT66F2390_UART_1602\Sub.c"
  49  0000              _Show_1st_Message_to_PC .section 'code'
  49  0000              _Show_1st_Message_to_PC proc
  49  0000  0002[           local _Show_1st_Message_to_PC_2 db 2 dup(?)	; 0,2
            00
            ]
  49  0000  0F10        	mov a,16
  49  0001  0080     R  	mov _Show_1st_Message_to_PC_2[0],a
  51  0002              #line 51 "E:\HT66\2019合泰杯线上讲课资料\HT8\HT66F2390UART例程_V1.1\HT66F2390_UART_1602\Sub.c"
  51  0002  1F00     R  	clr _Show_1st_Message_to_PC_2[1]
  51  0003              _L13:
  51  0003              #line 51 "E:\HT66\2019合泰杯线上讲课资料\HT8\HT66F2390UART例程_V1.1\HT66F2390_UART_1602\Sub.c"
  51  0003  0F00     R  	mov a,low offset _Line0
  51  0004  0300     R  	add a,_Show_1st_Message_to_PC_2[1]
  51  0005  0083        	mov mp,a
  51  0006  0F00     R  	mov a,high offset _Line0
  51  0007  1F04        	clr sbp
  51  0008  1384        	adcm a,sbp
  51  0009              	fcall _Crom2Prom
  51  0010              	fcall _UART_Send_Byte
  51  0017  1480     R  	inc _Show_1st_Message_to_PC_2[1]
  51  0018  1780     R  	sdz _Show_1st_Message_to_PC_2[0]
  51  0019  2800     R  	jmp _L13
  52  001A              #line 52 "E:\HT66\2019合泰杯线上讲课资料\HT8\HT66F2390UART例程_V1.1\HT66F2390_UART_1602\Sub.c"
  52  001A              ;# 52 "E:\HT66\2019合泰杯线上讲课资料\HT8\HT66F2390UART例程_V1.1\HT66F2390_UART_1602\Sub.c" 1
  52  001A              	IF 160000>263690
  52  001A              ;# 52 "E:\HT66\2019合泰杯线上讲课资料\HT8\HT66F2390UART例程_V1.1\HT66F2390_UART_1602\Sub.c" 1
  52  001A              	ERRMESSAGE 'the value 160000of the argument exceeds the maxinum 263690'
  52  001A              	ENDIF
  52  001A              ;# 52 "E:\HT66\2019合泰杯线上讲课资料\HT8\HT66F2390UART例程_V1.1\HT66F2390_UART_1602\Sub.c" 1
  52  001A              	IF 160000<0
  52  001A              ;# 52 "E:\HT66\2019合泰杯线上讲课资料\HT8\HT66F2390UART例程_V1.1\HT66F2390_UART_1602\Sub.c" 1
  52  001A              	ERRMESSAGE 'the value 160000 of the argument exceeds the mininum 0'
  52  001A              	ENDIF
  52  001A              ;# 52 "E:\HT66\2019合泰杯线上讲课资料\HT8\HT66F2390UART例程_V1.1\HT66F2390_UART_1602\Sub.c" 1
  52  001A              	IF 160000==0
  52  001A              ;# 52 "E:\HT66\2019合泰杯线上讲课资料\HT8\HT66F2390UART例程_V1.1\HT66F2390_UART_1602\Sub.c" 1
  52  001A              	JMP $
  52  001A              	ENDIF
  52  001A              ;# 52 "E:\HT66\2019合泰杯线上讲课资料\HT8\HT66F2390UART例程_V1.1\HT66F2390_UART_1602\Sub.c" 1
  52  001A              	IF (160000>=1) AND (160000<( 4 + __PBP__ * 2))
  52  001A              ;# 52 "E:\HT66\2019合泰杯线上讲课资料\HT8\HT66F2390UART例程_V1.1\HT66F2390_UART_1602\Sub.c" 1
文件：Sub.c        编译器版本 HGASM 0202 页次4

  52  001A              	NOP
  52  001A              	ENDIF
  52  001A              ;# 52 "E:\HT66\2019合泰杯线上讲课资料\HT8\HT66F2390UART例程_V1.1\HT66F2390_UART_1602\Sub.c" 1
  52  001A              	IF (160000>=2) AND (160000<( 4 + __PBP__ * 2))
  52  001A              ;# 52 "E:\HT66\2019合泰杯线上讲课资料\HT8\HT66F2390UART例程_V1.1\HT66F2390_UART_1602\Sub.c" 1
  52  001A              	NOP
  52  001A              	ENDIF
  52  001A              ;# 52 "E:\HT66\2019合泰杯线上讲课资料\HT8\HT66F2390UART例程_V1.1\HT66F2390_UART_1602\Sub.c" 1
  52  001A              	IF (160000>=3) AND (160000<( 4 + __PBP__ * 2))
  52  001A              ;# 52 "E:\HT66\2019合泰杯线上讲课资料\HT8\HT66F2390UART例程_V1.1\HT66F2390_UART_1602\Sub.c" 1
  52  001A              	NOP
  52  001A              	ENDIF
  52  001A              ;# 52 "E:\HT66\2019合泰杯线上讲课资料\HT8\HT66F2390UART例程_V1.1\HT66F2390_UART_1602\Sub.c" 1
  52  001A              	IF (160000>=4) AND (160000<( 4 + __PBP__ * 2)) AND ( __PBP__ > 0 )
  52  001A              ;# 52 "E:\HT66\2019合泰杯线上讲课资料\HT8\HT66F2390UART例程_V1.1\HT66F2390_UART_1602\Sub.c" 1
  52  001A              	NOP
  52  001A              	ENDIF
  52  001A              ;# 52 "E:\HT66\2019合泰杯线上讲课资料\HT8\HT66F2390UART例程_V1.1\HT66F2390_UART_1602\Sub.c" 1
  52  001A              	IF (160000>=5) AND (160000<( 4 + __PBP__ * 2)) AND ( __PBP__ > 0 )
  52  001A              ;# 52 "E:\HT66\2019合泰杯线上讲课资料\HT8\HT66F2390UART例程_V1.1\HT66F2390_UART_1602\Sub.c" 1
  52  001A              	NOP
  52  001A              	ENDIF
  52  001A              ;# 52 "E:\HT66\2019合泰杯线上讲课资料\HT8\HT66F2390UART例程_V1.1\HT66F2390_UART_1602\Sub.c" 1
  52  001A              	IF (160000>=6) AND (160000<( 4 + __PBP__ * 2))  AND ( __PBP__ > 1 )
  52  001A              ;# 52 "E:\HT66\2019合泰杯线上讲课资料\HT8\HT66F2390UART例程_V1.1\HT66F2390_UART_1602\Sub.c" 1
  52  001A              	NOP
  52  001A              	ENDIF
  52  001A              ;# 52 "E:\HT66\2019合泰杯线上讲课资料\HT8\HT66F2390UART例程_V1.1\HT66F2390_UART_1602\Sub.c" 1
  52  001A              	IF (160000>=7) AND (160000<( 4 + __PBP__ * 2))  AND ( __PBP__ > 1 )
  52  001A              ;# 52 "E:\HT66\2019合泰杯线上讲课资料\HT8\HT66F2390UART例程_V1.1\HT66F2390_UART_1602\Sub.c" 1
  52  001A              	NOP
  52  001A              	ENDIF
  52  001A              ;# 52 "E:\HT66\2019合泰杯线上讲课资料\HT8\HT66F2390UART例程_V1.1\HT66F2390_UART_1602\Sub.c" 1
  52  001A              	IF (160000>=8) AND (160000<( 4 + __PBP__ * 2))  AND ( __PBP__ > 2 )
  52  001A              ;# 52 "E:\HT66\2019合泰杯线上讲课资料\HT8\HT66F2390UART例程_V1.1\HT66F2390_UART_1602\Sub.c" 1
  52  001A              	NOP
  52  001A              	ENDIF
  52  001A              ;# 52 "E:\HT66\2019合泰杯线上讲课资料\HT8\HT66F2390UART例程_V1.1\HT66F2390_UART_1602\Sub.c" 1
  52  001A              	IF (160000==9)  AND ( __PBP__ > 2 )
  52  001A              ;# 52 "E:\HT66\2019合泰杯线上讲课资料\HT8\HT66F2390UART例程_V1.1\HT66F2390_UART_1602\Sub.c" 1
  52  001A              	NOP
  52  001A              	ENDIF
  52  001A              ;# 52 "E:\HT66\2019合泰杯线上讲课资料\HT8\HT66F2390UART例程_V1.1\HT66F2390_UART_1602\Sub.c" 1
  52  001A              	IF (160000< ( 8 + __PBP__ * 2)) AND (160000>( 3 + __PBP__ * 2))
  52  001A              ;# 52 "E:\HT66\2019合泰杯线上讲课资料\HT8\HT66F2390UART例程_V1.1\HT66F2390_UART_1602\Sub.c" 1
  52  001A              	fcall __DELAY3 + ( 7 + __PBP__ * 2) -160000
  52  001A              	ENDIF
  52  001A              ;# 52 "E:\HT66\2019合泰杯线上讲课资料\HT8\HT66F2390UART例程_V1.1\HT66F2390_UART_1602\Sub.c" 1
  52  001A              	IF (160000< ( 0404h + __PBP__ * 2)) AND (160000>( 7 + __PBP__ * 2))
  52  001A              ;# 52 "E:\HT66\2019合泰杯线上讲课资料\HT8\HT66F2390UART例程_V1.1\HT66F2390_UART_1602\Sub.c" 1
  52  001A              	MOV A,(160000-( 4 + __PBP__ * 2))/4
  52  001A              ;# 52 "E:\HT66\2019合泰杯线上讲课资料\HT8\HT66F2390UART例程_V1.1\HT66F2390_UART_1602\Sub.c" 1
  52  001A              	fcall __DELAYX3 + 3 -((160000-( 4 + __PBP__ * 2)) MOD 4) 
  52  001A              	ENDIF
  52  001A              ;# 52 "E:\HT66\2019合泰杯线上讲课资料\HT8\HT66F2390UART例程_V1.1\HT66F2390_UART_1602\Sub.c" 1
  52  001A              	IF (160000< ( 040bh + __PBP__ * 2)) AND (160000> ( 0403h + __PBP__ * 2))
  52  001A              ;# 52 "E:\HT66\2019合泰杯线上讲课资料\HT8\HT66F2390UART例程_V1.1\HT66F2390_UART_1602\Sub.c" 1
  52  001A              	MOV A,0 
  52  001A              ;# 52 "E:\HT66\2019合泰杯线上讲课资料\HT8\HT66F2390UART例程_V1.1\HT66F2390_UART_1602\Sub.c" 1
  52  001A              	fcall __DELAYX6 + ( 040ah + __PBP__ * 2) -160000
文件：Sub.c        编译器版本 HGASM 0202 页次5

  52  001A              	ENDIF
  52  001A              ;# 52 "E:\HT66\2019合泰杯线上讲课资料\HT8\HT66F2390UART例程_V1.1\HT66F2390_UART_1602\Sub.c" 1
  52  001A              	IF (160000 >= ( 040bh + __PBP__ * 2)) AND ((((160000-( 9 + __PBP__ * 2))%0402h)/4+1)>256)
  52  001A              ;# 52 "E:\HT66\2019合泰杯线上讲课资料\HT8\HT66F2390UART例程_V1.1\HT66F2390_UART_1602\Sub.c" 1
  52  001A              	MOV A,(160000-( 9 + __PBP__ * 2))/0402h
  52  001A              ;# 52 "E:\HT66\2019合泰杯线上讲课资料\HT8\HT66F2390UART例程_V1.1\HT66F2390_UART_1602\Sub.c" 1
  52  001A              	MOV _builtin_holtek_delay_2,A
  52  001A              ;# 52 "E:\HT66\2019合泰杯线上讲课资料\HT8\HT66F2390UART例程_V1.1\HT66F2390_UART_1602\Sub.c" 1
  52  001A              	MOV A,0
  52  001A              ;# 52 "E:\HT66\2019合泰杯线上讲课资料\HT8\HT66F2390UART例程_V1.1\HT66F2390_UART_1602\Sub.c" 1
  52  001A              	fcall __DELAYY5 +5- (((160000-( 9 + __PBP__ * 2))%0402h)%6) 
  52  001A              	ENDIF
  52  001A              ;# 52 "E:\HT66\2019合泰杯线上讲课资料\HT8\HT66F2390UART例程_V1.1\HT66F2390_UART_1602\Sub.c" 1
  52  001A              	IF (160000 >= ( 040bh + __PBP__ * 2)) AND ((((160000-( 9 + __PBP__ * 2))%0402h)/4+1)<=256)
  52  001A              ;# 52 "E:\HT66\2019合泰杯线上讲课资料\HT8\HT66F2390UART例程_V1.1\HT66F2390_UART_1602\Sub.c" 1
  52  001A  0F9B        	MOV A,(160000-( 9 + __PBP__ * 2))/0402h
  52  001B              ;# 52 "E:\HT66\2019合泰杯线上讲课资料\HT8\HT66F2390UART例程_V1.1\HT66F2390_UART_1602\Sub.c" 1
  52  001B  0080     E  	MOV _builtin_holtek_delay_2,A
  52  001C              ;# 52 "E:\HT66\2019合泰杯线上讲课资料\HT8\HT66F2390UART例程_V1.1\HT66F2390_UART_1602\Sub.c" 1
  52  001C  0FEF        	MOV A,((160000-( 9 + __PBP__ * 2))%0402h)/4+1
  52  001D              ;# 52 "E:\HT66\2019合泰杯线上讲课资料\HT8\HT66F2390UART例程_V1.1\HT66F2390_UART_1602\Sub.c" 1
  52  001D              	fcall __DELAYY3 +3-(((160000-( 9 + __PBP__ * 2))%0402h)%4) 
  52  0024              	ENDIF
  52  0024  0F10        	mov a,16
  52  0025  0080     R  	mov _Show_1st_Message_to_PC_2[0],a
  53  0026              #line 53 "E:\HT66\2019合泰杯线上讲课资料\HT8\HT66F2390UART例程_V1.1\HT66F2390_UART_1602\Sub.c"
  53  0026  1F00     R  	clr _Show_1st_Message_to_PC_2[1]
  53  0027              _L15:
  53  0027  0F00     R  	mov a,low offset _Line1
  53  0028  0300     R  	add a,_Show_1st_Message_to_PC_2[1]
  53  0029  0083        	mov mp,a
  53  002A  0F00     R  	mov a,high offset _Line1
  53  002B  1F04        	clr sbp
  53  002C  1384        	adcm a,sbp
  53  002D              	fcall _Crom2Prom
  53  0034              	fcall _UART_Send_Byte
  53  003B  1480     R  	inc _Show_1st_Message_to_PC_2[1]
  53  003C  1780     R  	sdz _Show_1st_Message_to_PC_2[0]
  53  003D  2800     R  	jmp _L15
  53  003E  0003        	ret
  53  003F              _Show_1st_Message_to_PC endp
  53  003F              #line 53 "E:\HT66\2019合泰杯线上讲课资料\HT8\HT66F2390UART例程_V1.1\HT66F2390_UART_1602\Sub.c"
  53  003F              #pragma debug scope 1 1
  53  003F              public _Show_1st_Message_to_1602
  53  003F              #pragma debug scope 4 1
  57  003F              #line 57 "E:\HT66\2019合泰杯线上讲课资料\HT8\HT66F2390UART例程_V1.1\HT66F2390_UART_1602\Sub.c"
  57  0000              _Show_1st_Message_to_1602 .section 'code'
  57  0000              _Show_1st_Message_to_1602 proc
  57  0000  0002[           local _Show_1st_Message_to_1602_2 db 2 dup(?)	; 0,2
            00
            ]
  57  0000  0F10        	mov a,16
  57  0001  0080     R  	mov _Show_1st_Message_to_1602_2[1],a
  59  0002              #line 59 "E:\HT66\2019合泰杯线上讲课资料\HT8\HT66F2390UART例程_V1.1\HT66F2390_UART_1602\Sub.c"
  59  0002  1F00     R  	clr _Show_1st_Message_to_1602_2[0]
  59  0003              _L18:
  59  0003              #line 59 "E:\HT66\2019合泰杯线上讲课资料\HT8\HT66F2390UART例程_V1.1\HT66F2390_UART_1602\Sub.c"
  59  0003  0F00     R  	mov a,low offset _Line0
  59  0004  0300     R  	add a,_Show_1st_Message_to_1602_2[0]
  59  0005  0083        	mov mp,a
文件：Sub.c        编译器版本 HGASM 0202 页次6

  59  0006  0F00     R  	mov a,high offset _Line0
  59  0007  1F04        	clr sbp
  59  0008  1384        	adcm a,sbp
  59  0009              	fcall _Crom2Prom
  59  0010  0080     E  	mov _Display_Word_2[1],a
  59  0011  0700     R  	mov a,_Show_1st_Message_to_1602_2[0]
  59  0012  0080     E  	mov _Display_Word_2[0],a
  59  0013  0F00        	mov a,0
  59  0014              	fcall _Display_Word
  59  001B  1480     R  	inc _Show_1st_Message_to_1602_2[0]
  59  001C  1780     R  	sdz _Show_1st_Message_to_1602_2[1]
  59  001D  2800     R  	jmp _L18
  59  001E  0F10        	mov a,16
  59  001F  0080     R  	mov _Show_1st_Message_to_1602_2[1],a
  59  0020  1F00     R  	clr _Show_1st_Message_to_1602_2[0]
  59  0021              _L20:
  60  0021              #line 60 "E:\HT66\2019合泰杯线上讲课资料\HT8\HT66F2390UART例程_V1.1\HT66F2390_UART_1602\Sub.c"
  60  0021  0F00     R  	mov a,low offset _Line1
  60  0022  0300     R  	add a,_Show_1st_Message_to_1602_2[0]
  60  0023  0083        	mov mp,a
  60  0024  0F00     R  	mov a,high offset _Line1
  60  0025  1F04        	clr sbp
  60  0026  1384        	adcm a,sbp
  60  0027              	fcall _Crom2Prom
  60  002E  0080     E  	mov _Display_Word_2[1],a
  60  002F  0700     R  	mov a,_Show_1st_Message_to_1602_2[0]
  60  0030  0080     E  	mov _Display_Word_2[0],a
  60  0031  0F01        	mov a,1
  60  0032              	fcall _Display_Word
  60  0039  1480     R  	inc _Show_1st_Message_to_1602_2[0]
  60  003A  1780     R  	sdz _Show_1st_Message_to_1602_2[1]
  60  003B  2800     R  	jmp _L20
  60  003C  0003        	ret
  60  003D              _Show_1st_Message_to_1602 endp
  60  003D              #line 60 "E:\HT66\2019合泰杯线上讲课资料\HT8\HT66F2390UART例程_V1.1\HT66F2390_UART_1602\Sub.c"
  60  003D              #pragma debug scope 1 1
  60  003D              _Show_words equ [416]
  60  003D              public _Show_UART_Data_to_1602
  60  003D              #pragma debug scope 5 1
  64  003D              #line 64 "E:\HT66\2019合泰杯线上讲课资料\HT8\HT66F2390UART例程_V1.1\HT66F2390_UART_1602\Sub.c"
  64  0000              _Show_UART_Data_to_1602 .section 'code'
  64  0000              _Show_UART_Data_to_1602 proc
  64  0000  0002[           local _Show_UART_Data_to_1602_2 db 2 dup(?)	; 0,2
            00
            ]
  64  0000  0F10        	mov a,16
  64  0001  0080     R  	mov _Show_UART_Data_to_1602_2[1],a
  66  0002              #line 66 "E:\HT66\2019合泰杯线上讲课资料\HT8\HT66F2390UART例程_V1.1\HT66F2390_UART_1602\Sub.c"
  66  0002  1F00     R  	clr _Show_UART_Data_to_1602_2[0]
  66  0003              _L23:
  66  0003              #line 66 "E:\HT66\2019合泰杯线上讲课资料\HT8\HT66F2390UART例程_V1.1\HT66F2390_UART_1602\Sub.c"
  66  0003  0F00     R  	mov a,low offset _Line0
  66  0004  0300     R  	add a,_Show_UART_Data_to_1602_2[0]
  66  0005  0083        	mov mp,a
  66  0006  0F00     R  	mov a,high offset _Line0
  66  0007  1F04        	clr sbp
  66  0008  1384        	adcm a,sbp
  66  0009              	fcall _Crom2Prom
  66  0010  0080     E  	mov _Display_Word_2[1],a
  66  0011  0700     R  	mov a,_Show_UART_Data_to_1602_2[0]
文件：Sub.c        编译器版本 HGASM 0202 页次7

  66  0012  0080     E  	mov _Display_Word_2[0],a
  66  0013  0F00        	mov a,0
  66  0014              	fcall _Display_Word
  66  001B  1480     R  	inc _Show_UART_Data_to_1602_2[0]
  66  001C  1780     R  	sdz _Show_UART_Data_to_1602_2[1]
  66  001D  2800     R  	jmp _L23
  66  001E  1F00     R  	clr _Show_UART_Data_to_1602_2[0]
  66  001F              _L25:
  67  001F              #line 67 "E:\HT66\2019合泰杯线上讲课资料\HT8\HT66F2390UART例程_V1.1\HT66F2390_UART_1602\Sub.c"
  67  001F  0F14        	mov a,20
  67  0020  0080     E  	mov _Display_Word_2[1],a
  67  0021  0700     R  	mov a,_Show_UART_Data_to_1602_2[0]
  67  0022  0080     E  	mov _Display_Word_2[0],a
  67  0023  0F01        	mov a,1
  67  0024              	fcall _Display_Word
  67  002B  1480     R  	inc _Show_UART_Data_to_1602_2[0]
  67  002C  0700     R  	mov a,_Show_UART_Data_to_1602_2[0]
  67  002D  0A10        	sub a,16
  67  002E  390A        	snz z
  67  002F  2800     R  	jmp _L25
  68  0030              #line 68 "E:\HT66\2019合泰杯线上讲课资料\HT8\HT66F2390UART例程_V1.1\HT66F2390_UART_1602\Sub.c"
  68  0030              ;# 68 "E:\HT66\2019合泰杯线上讲课资料\HT8\HT66F2390UART例程_V1.1\HT66F2390_UART_1602\Sub.c" 1
  68  0030              	IF 100000>263690
  68  0030              ;# 68 "E:\HT66\2019合泰杯线上讲课资料\HT8\HT66F2390UART例程_V1.1\HT66F2390_UART_1602\Sub.c" 1
  68  0030              	ERRMESSAGE 'the value 100000of the argument exceeds the maxinum 263690'
  68  0030              	ENDIF
  68  0030              ;# 68 "E:\HT66\2019合泰杯线上讲课资料\HT8\HT66F2390UART例程_V1.1\HT66F2390_UART_1602\Sub.c" 1
  68  0030              	IF 100000<0
  68  0030              ;# 68 "E:\HT66\2019合泰杯线上讲课资料\HT8\HT66F2390UART例程_V1.1\HT66F2390_UART_1602\Sub.c" 1
  68  0030              	ERRMESSAGE 'the value 100000 of the argument exceeds the mininum 0'
  68  0030              	ENDIF
  68  0030              ;# 68 "E:\HT66\2019合泰杯线上讲课资料\HT8\HT66F2390UART例程_V1.1\HT66F2390_UART_1602\Sub.c" 1
  68  0030              	IF 100000==0
  68  0030              ;# 68 "E:\HT66\2019合泰杯线上讲课资料\HT8\HT66F2390UART例程_V1.1\HT66F2390_UART_1602\Sub.c" 1
  68  0030              	JMP $
  68  0030              	ENDIF
  68  0030              ;# 68 "E:\HT66\2019合泰杯线上讲课资料\HT8\HT66F2390UART例程_V1.1\HT66F2390_UART_1602\Sub.c" 1
  68  0030              	IF (100000>=1) AND (100000<( 4 + __PBP__ * 2))
  68  0030              ;# 68 "E:\HT66\2019合泰杯线上讲课资料\HT8\HT66F2390UART例程_V1.1\HT66F2390_UART_1602\Sub.c" 1
  68  0030              	NOP
  68  0030              	ENDIF
  68  0030              ;# 68 "E:\HT66\2019合泰杯线上讲课资料\HT8\HT66F2390UART例程_V1.1\HT66F2390_UART_1602\Sub.c" 1
  68  0030              	IF (100000>=2) AND (100000<( 4 + __PBP__ * 2))
  68  0030              ;# 68 "E:\HT66\2019合泰杯线上讲课资料\HT8\HT66F2390UART例程_V1.1\HT66F2390_UART_1602\Sub.c" 1
  68  0030              	NOP
  68  0030              	ENDIF
  68  0030              ;# 68 "E:\HT66\2019合泰杯线上讲课资料\HT8\HT66F2390UART例程_V1.1\HT66F2390_UART_1602\Sub.c" 1
  68  0030              	IF (100000>=3) AND (100000<( 4 + __PBP__ * 2))
  68  0030              ;# 68 "E:\HT66\2019合泰杯线上讲课资料\HT8\HT66F2390UART例程_V1.1\HT66F2390_UART_1602\Sub.c" 1
  68  0030              	NOP
  68  0030              	ENDIF
  68  0030              ;# 68 "E:\HT66\2019合泰杯线上讲课资料\HT8\HT66F2390UART例程_V1.1\HT66F2390_UART_1602\Sub.c" 1
  68  0030              	IF (100000>=4) AND (100000<( 4 + __PBP__ * 2)) AND ( __PBP__ > 0 )
  68  0030              ;# 68 "E:\HT66\2019合泰杯线上讲课资料\HT8\HT66F2390UART例程_V1.1\HT66F2390_UART_1602\Sub.c" 1
  68  0030              	NOP
  68  0030              	ENDIF
  68  0030              ;# 68 "E:\HT66\2019合泰杯线上讲课资料\HT8\HT66F2390UART例程_V1.1\HT66F2390_UART_1602\Sub.c" 1
  68  0030              	IF (100000>=5) AND (100000<( 4 + __PBP__ * 2)) AND ( __PBP__ > 0 )
  68  0030              ;# 68 "E:\HT66\2019合泰杯线上讲课资料\HT8\HT66F2390UART例程_V1.1\HT66F2390_UART_1602\Sub.c" 1
  68  0030              	NOP
文件：Sub.c        编译器版本 HGASM 0202 页次8

  68  0030              	ENDIF
  68  0030              ;# 68 "E:\HT66\2019合泰杯线上讲课资料\HT8\HT66F2390UART例程_V1.1\HT66F2390_UART_1602\Sub.c" 1
  68  0030              	IF (100000>=6) AND (100000<( 4 + __PBP__ * 2))  AND ( __PBP__ > 1 )
  68  0030              ;# 68 "E:\HT66\2019合泰杯线上讲课资料\HT8\HT66F2390UART例程_V1.1\HT66F2390_UART_1602\Sub.c" 1
  68  0030              	NOP
  68  0030              	ENDIF
  68  0030              ;# 68 "E:\HT66\2019合泰杯线上讲课资料\HT8\HT66F2390UART例程_V1.1\HT66F2390_UART_1602\Sub.c" 1
  68  0030              	IF (100000>=7) AND (100000<( 4 + __PBP__ * 2))  AND ( __PBP__ > 1 )
  68  0030              ;# 68 "E:\HT66\2019合泰杯线上讲课资料\HT8\HT66F2390UART例程_V1.1\HT66F2390_UART_1602\Sub.c" 1
  68  0030              	NOP
  68  0030              	ENDIF
  68  0030              ;# 68 "E:\HT66\2019合泰杯线上讲课资料\HT8\HT66F2390UART例程_V1.1\HT66F2390_UART_1602\Sub.c" 1
  68  0030              	IF (100000>=8) AND (100000<( 4 + __PBP__ * 2))  AND ( __PBP__ > 2 )
  68  0030              ;# 68 "E:\HT66\2019合泰杯线上讲课资料\HT8\HT66F2390UART例程_V1.1\HT66F2390_UART_1602\Sub.c" 1
  68  0030              	NOP
  68  0030              	ENDIF
  68  0030              ;# 68 "E:\HT66\2019合泰杯线上讲课资料\HT8\HT66F2390UART例程_V1.1\HT66F2390_UART_1602\Sub.c" 1
  68  0030              	IF (100000==9)  AND ( __PBP__ > 2 )
  68  0030              ;# 68 "E:\HT66\2019合泰杯线上讲课资料\HT8\HT66F2390UART例程_V1.1\HT66F2390_UART_1602\Sub.c" 1
  68  0030              	NOP
  68  0030              	ENDIF
  68  0030              ;# 68 "E:\HT66\2019合泰杯线上讲课资料\HT8\HT66F2390UART例程_V1.1\HT66F2390_UART_1602\Sub.c" 1
  68  0030              	IF (100000< ( 8 + __PBP__ * 2)) AND (100000>( 3 + __PBP__ * 2))
  68  0030              ;# 68 "E:\HT66\2019合泰杯线上讲课资料\HT8\HT66F2390UART例程_V1.1\HT66F2390_UART_1602\Sub.c" 1
  68  0030              	fcall __DELAY3 + ( 7 + __PBP__ * 2) -100000
  68  0030              	ENDIF
  68  0030              ;# 68 "E:\HT66\2019合泰杯线上讲课资料\HT8\HT66F2390UART例程_V1.1\HT66F2390_UART_1602\Sub.c" 1
  68  0030              	IF (100000< ( 0404h + __PBP__ * 2)) AND (100000>( 7 + __PBP__ * 2))
  68  0030              ;# 68 "E:\HT66\2019合泰杯线上讲课资料\HT8\HT66F2390UART例程_V1.1\HT66F2390_UART_1602\Sub.c" 1
  68  0030              	MOV A,(100000-( 4 + __PBP__ * 2))/4
  68  0030              ;# 68 "E:\HT66\2019合泰杯线上讲课资料\HT8\HT66F2390UART例程_V1.1\HT66F2390_UART_1602\Sub.c" 1
  68  0030              	fcall __DELAYX3 + 3 -((100000-( 4 + __PBP__ * 2)) MOD 4) 
  68  0030              	ENDIF
  68  0030              ;# 68 "E:\HT66\2019合泰杯线上讲课资料\HT8\HT66F2390UART例程_V1.1\HT66F2390_UART_1602\Sub.c" 1
  68  0030              	IF (100000< ( 040bh + __PBP__ * 2)) AND (100000> ( 0403h + __PBP__ * 2))
  68  0030              ;# 68 "E:\HT66\2019合泰杯线上讲课资料\HT8\HT66F2390UART例程_V1.1\HT66F2390_UART_1602\Sub.c" 1
  68  0030              	MOV A,0 
  68  0030              ;# 68 "E:\HT66\2019合泰杯线上讲课资料\HT8\HT66F2390UART例程_V1.1\HT66F2390_UART_1602\Sub.c" 1
  68  0030              	fcall __DELAYX6 + ( 040ah + __PBP__ * 2) -100000
  68  0030              	ENDIF
  68  0030              ;# 68 "E:\HT66\2019合泰杯线上讲课资料\HT8\HT66F2390UART例程_V1.1\HT66F2390_UART_1602\Sub.c" 1
  68  0030              	IF (100000 >= ( 040bh + __PBP__ * 2)) AND ((((100000-( 9 + __PBP__ * 2))%0402h)/4+1)>256)
  68  0030              ;# 68 "E:\HT66\2019合泰杯线上讲课资料\HT8\HT66F2390UART例程_V1.1\HT66F2390_UART_1602\Sub.c" 1
  68  0030              	MOV A,(100000-( 9 + __PBP__ * 2))/0402h
  68  0030              ;# 68 "E:\HT66\2019合泰杯线上讲课资料\HT8\HT66F2390UART例程_V1.1\HT66F2390_UART_1602\Sub.c" 1
  68  0030              	MOV _builtin_holtek_delay_2,A
  68  0030              ;# 68 "E:\HT66\2019合泰杯线上讲课资料\HT8\HT66F2390UART例程_V1.1\HT66F2390_UART_1602\Sub.c" 1
  68  0030              	MOV A,0
  68  0030              ;# 68 "E:\HT66\2019合泰杯线上讲课资料\HT8\HT66F2390UART例程_V1.1\HT66F2390_UART_1602\Sub.c" 1
  68  0030              	fcall __DELAYY5 +5- (((100000-( 9 + __PBP__ * 2))%0402h)%6) 
  68  0030              	ENDIF
  68  0030              ;# 68 "E:\HT66\2019合泰杯线上讲课资料\HT8\HT66F2390UART例程_V1.1\HT66F2390_UART_1602\Sub.c" 1
  68  0030              	IF (100000 >= ( 040bh + __PBP__ * 2)) AND ((((100000-( 9 + __PBP__ * 2))%0402h)/4+1)<=256)
  68  0030              ;# 68 "E:\HT66\2019合泰杯线上讲课资料\HT8\HT66F2390UART例程_V1.1\HT66F2390_UART_1602\Sub.c" 1
  68  0030  0F61        	MOV A,(100000-( 9 + __PBP__ * 2))/0402h
  68  0031              ;# 68 "E:\HT66\2019合泰杯线上讲课资料\HT8\HT66F2390UART例程_V1.1\HT66F2390_UART_1602\Sub.c" 1
  68  0031  0080     E  	MOV _builtin_holtek_delay_2,A
  68  0032              ;# 68 "E:\HT66\2019合泰杯线上讲课资料\HT8\HT66F2390UART例程_V1.1\HT66F2390_UART_1602\Sub.c" 1
  68  0032  0F74        	MOV A,((100000-( 9 + __PBP__ * 2))%0402h)/4+1
  68  0033              ;# 68 "E:\HT66\2019合泰杯线上讲课资料\HT8\HT66F2390UART例程_V1.1\HT66F2390_UART_1602\Sub.c" 1
文件：Sub.c        编译器版本 HGASM 0202 页次9

  68  0033              	fcall __DELAYY3 +3-(((100000-( 9 + __PBP__ * 2))%0402h)%4) 
  68  003A              	ENDIF
  69  003A              #line 69 "E:\HT66\2019合泰杯线上讲课资料\HT8\HT66F2390UART例程_V1.1\HT66F2390_UART_1602\Sub.c"
  69  003A  1F00     R  	clr _Show_UART_Data_to_1602_2[0]
  69  003B  2800     R  	jmp _L26
  69  003C              _L27:
  69  003C  0FA0        	mov a,low offset _Show_words
  69  003D  0300     R  	add a,_Show_UART_Data_to_1602_2[0]
  69  003E  0083        	mov mp,a
  69  003F  0F01        	mov a,high offset _Show_words
  69  0040  1F04        	clr sbp
  69  0041  1384        	adcm a,sbp
  69  0042              	fcall _Crom2Prom
  69  0049  0080     E  	mov _Display_Word_2[1],a
  69  004A  0700     R  	mov a,_Show_UART_Data_to_1602_2[0]
  69  004B  0080     E  	mov _Display_Word_2[0],a
  69  004C  0F01        	mov a,1
  69  004D              	fcall _Display_Word
  69  0054  1480     R  	inc _Show_UART_Data_to_1602_2[0]
  69  0055              _L26:
  69  0055  0700     R  	mov a,_Show_UART_Data_to_1602_2[0]
  69  0056  0200     E  	sub a,_RCV_Data_Length[0]
  69  0057  380A        	snz c
  69  0058  2800     R  	jmp _L27
  69  0059  0003        	ret
  69  005A              _Show_UART_Data_to_1602 endp
  69  005A              #line 69 "E:\HT66\2019合泰杯线上讲课资料\HT8\HT66F2390UART例程_V1.1\HT66F2390_UART_1602\Sub.c"
  69  005A              #pragma debug scope 1 1
  69  005A              public _Line1
  69  0000              @crom	.section 'crom'
   6  0000              #line 6 "E:\HT66\2019合泰杯线上讲课资料\HT8\HT66F2390UART例程_V1.1\HT66F2390_UART_1602\Sub.c"
   6  0000              @crom	.section	'crom'
   6  0000              _Line1:
   6  0000              #pragma debug array 42 8 16 1
   6  0000              #pragma debug array 42 8 16 1
   6  0000              #pragma debug variable 42 1 _Line1 "Line1"
   6  0000              	db 020h,020h,048h,065h,06ch,06ch,06fh,020h,057h,06fh
   6  0005              	db 072h,06ch,064h,021h,020h,020h
   6  0008              public _Line0
   5  0008              #line 5 "E:\HT66\2019合泰杯线上讲课资料\HT8\HT66F2390UART例程_V1.1\HT66F2390_UART_1602\Sub.c"
   5  0008              @crom	.section	'crom'
   5  0008              _Line0:
   5  0008              #pragma debug variable 42 1 _Line0 "Line0"
   5  0008              	db 020h,020h,031h,036h,030h,032h,020h,044h,049h,053h
   5  000D              	db 050h,04ch,041h,059h,020h,020h
   5  0010              #pragma debug variable 8 1 ___mp0 "__mp0" 1
   5  0010              #pragma debug variable 8 1 ___mp1l "__mp1l" 1
   5  0010              #pragma debug variable 8 1 ___mp1h "__mp1h" 1
   5  0010              #pragma debug struct_end
   5  0010              #pragma debug struct_end
   5  0010              #pragma debug union_end
   5  0010              #pragma debug union_end
   5  0010              #pragma debug variable 44 1 ___hircc "__hircc" 1
   5  0010              #pragma debug struct_end
   5  0010              #pragma debug struct_end
   5  0010              #pragma debug union_end
   5  0010              #pragma debug union_end
   5  0010              #pragma debug variable 46 1 ___wdtc "__wdtc" 1
   5  0010              #pragma debug variable 8 1 ___iar0 "__iar0" 1
   5  0010              #pragma debug variable 8 1 ___iar1 "__iar1" 1
文件：Sub.c        编译器版本 HGASM 0202 页次10

   5  0010              #pragma debug array 47 8 16 1
   5  0010              #pragma debug array 47 8 16 1
   5  0010              #pragma debug variable 47 1 _Show_words "Show_words" 16
   5  0010              
   5  0010              ; output external variables
   5  0010              extern _RCV_Data_Length:byte
   5  0010              extern _UART_Send_Byte:near
   5  0010              extern _Display_Word_2:byte
   5  0010              extern _Display_Word:near
   5  0010              
   5  0010              ; 
   5  0010              ; Generated by holtek-gcc v3.19, Fri Mar 18 18:46:54 2022
   5  0010              ; Rebuild 718
   5  0010              ; end of file


        0 Errors, 0